; Function Attrs: mustprogress nounwind uwtable
define internal void @"_ZN4llvm12function_refIFvNS_9StringRefEEE11callback_fnIZNS_2cl30TokenizeWindowsCommandLineFullES1_RNS_11StringSaverERNS_15SmallVectorImplIPKcEEbE3$_0EEvlS1_"(i64 noundef %0, ptr %1, i64 %2) #0 align 2 {
  %4 = inttoptr i64 %0 to ptr
  %.val = load ptr, ptr %4, align 8
  %5 = tail call noundef i64 @_ZNK4llvm15SmallVectorBaseIjE4sizeEv(ptr noundef nonnull align 8 dereferenceable(16) %.val) #25
  %6 = add i64 %5, 1
  %7 = tail call noundef i64 @_ZNK4llvm15SmallVectorBaseIjE8capacityEv(ptr noundef nonnull align 8 dereferenceable(16) %.val) #25
  %.not.i.i.i.i = icmp ugt i64 %6, %7
  br i1 %.not.i.i.i.i, label %8, label %"_ZZN4llvm2cl30TokenizeWindowsCommandLineFullENS_9StringRefERNS_11StringSaverERNS_15SmallVectorImplIPKcEEbENK3$_0clES1_.exit"

8:                                                ; preds = %3
  %9 = getelementptr inbounds i8, ptr %.val, i64 16
  tail call void @_ZN4llvm15SmallVectorBaseIjE8grow_podEPvmm(ptr noundef nonnull align 8 dereferenceable(16) %.val, ptr noundef nonnull %9, i64 noundef %6, i64 noundef 8) #25
  br label %"_ZZN4llvm2cl30TokenizeWindowsCommandLineFullENS_9StringRefERNS_11StringSaverERNS_15SmallVectorImplIPKcEEbENK3$_0clES1_.exit"

"_ZZN4llvm2cl30TokenizeWindowsCommandLineFullENS_9StringRefERNS_11StringSaverERNS_15SmallVectorImplIPKcEEbENK3$_0clES1_.exit": ; preds = %3, %8
  %10 = load ptr, ptr %.val, align 8
  %11 = tail call noundef i64 @_ZNK4llvm15SmallVectorBaseIjE4sizeEv(ptr noundef nonnull align 8 dereferenceable(16) %.val) #25
  %12 = getelementptr inbounds ptr, ptr %10, i64 %11
  %13 = ptrtoint ptr %1 to i64
  store i64 %13, ptr %12, align 1
  %14 = tail call noundef i64 @_ZNK4llvm15SmallVectorBaseIjE4sizeEv(ptr noundef nonnull align 8 dereferenceable(16) %.val) #25
  %15 = add i64 %14, 1
  tail call void @_ZN4llvm15SmallVectorBaseIjE8set_sizeEm(ptr noundef nonnull align 8 dereferenceable(16) %.val, i64 noundef %15) #25
  ret void
}